; Function Attrs: nounwind sspstrong uwtable
define dso_local zeroext i1 @qdev_prop_set_drive_err(ptr noundef %dev, ptr noundef %name, ptr noundef %value, ptr noundef %errp) local_unnamed_addr #0 {
entry:
  %tobool.not = icmp eq ptr %value, null
  br i1 %tobool.not, label %if.end8, label %if.then

if.then:                                          ; preds = %entry
  %call = tail call ptr @blk_name(ptr noundef nonnull %value) #10
  %0 = load i8, ptr %call, align 1
  %tobool1.not = icmp eq i8 %0, 0
  br i1 %tobool1.not, label %if.then2, label %if.end8

if.then2:                                         ; preds = %if.then
  %call3 = tail call ptr @blk_bs(ptr noundef nonnull %value) #10
  %tobool4.not = icmp eq ptr %call3, null
  br i1 %tobool4.not, label %if.end8, label %if.then5

if.then5:                                         ; preds = %if.then2
  %call6 = tail call ptr @bdrv_get_node_name(ptr noundef nonnull %call3) #10
  br label %if.end8

if.end8:                                          ; preds = %if.then, %if.then5, %if.then2, %entry
  %ref.0 = phi ptr [ %call, %if.then ], [ %call6, %if.then5 ], [ %call, %if.then2 ], [ @.str.7, %entry ]
  %call9 = tail call zeroext i1 @object_property_set_str(ptr noundef %dev, ptr noundef %name, ptr noundef %ref.0, ptr noundef %errp) #10
  ret i1 %call9
}